target datalayout = "e-m:e-p270:32:32-p271:32:32-p272:64:64-i64:64-i128:128-f80:128-n8:16:32:64-S128"
target triple = "x86_64-pc-linux-gnu"

@.str.1 = private unnamed_addr constant [13 x i8] c"script_lua.c\00", align 1
@.str.105 = private unnamed_addr constant [52 x i8] c"lua stack limit reach when parsing redis.call reply\00", align 1

; Function Attrs: nounwind uwtable
define internal void @redisProtocolToLuaType_Array(ptr noundef %0, ptr noundef %1, i64 noundef %2, ptr noundef %3) #0 {
  %5 = alloca ptr, align 8
  %6 = alloca ptr, align 8
  %7 = alloca i64, align 8
  %8 = alloca ptr, align 8
  %9 = alloca ptr, align 8
  %10 = alloca i64, align 8
  store ptr %0, ptr %5, align 8, !tbaa !123
  store ptr %1, ptr %6, align 8, !tbaa !12
  store i64 %2, ptr %7, align 8, !tbaa !23
  store ptr %3, ptr %8, align 8, !tbaa !10
  call void @llvm.lifetime.start.p0(i64 8, ptr %9) #12
  %11 = load ptr, ptr %6, align 8, !tbaa !12
  store ptr %11, ptr %9, align 8, !tbaa !5
  %12 = load ptr, ptr %9, align 8, !tbaa !5
  %13 = icmp ne ptr %12, null
  br i1 %13, label %14, label %21

14:                                               ; preds = %4
  %15 = load ptr, ptr %9, align 8, !tbaa !5
  %16 = call i32 @lua_checkstack(ptr noundef %15, i32 noundef 2)
  %17 = icmp ne i32 %16, 0
  br i1 %17, label %19, label %18

18:                                               ; preds = %14
  call void (ptr, i32, ptr, ...) @_serverPanic(ptr noundef @.str.1, i32 noundef 383, ptr noundef @.str.105)
  call void @abort() #11
  unreachable

19:                                               ; preds = %14
  %20 = load ptr, ptr %9, align 8, !tbaa !5
  call void @lua_createtable(ptr noundef %20, i32 noundef 0, i32 noundef 0)
  br label %21

21:                                               ; preds = %19, %4
  call void @llvm.lifetime.start.p0(i64 8, ptr %10) #12
  store i64 0, ptr %10, align 8, !tbaa !23
  br label %22

22:                                               ; preds = %44, %21
  %23 = load i64, ptr %10, align 8, !tbaa !23
  %24 = load i64, ptr %7, align 8, !tbaa !23
  %25 = icmp ult i64 %23, %24
  br i1 %25, label %27, label %26

26:                                               ; preds = %22
  call void @llvm.lifetime.end.p0(i64 8, ptr %10) #12
  br label %47

27:                                               ; preds = %22
  %28 = load ptr, ptr %9, align 8, !tbaa !5
  %29 = icmp ne ptr %28, null
  br i1 %29, label %30, label %35

30:                                               ; preds = %27
  %31 = load ptr, ptr %9, align 8, !tbaa !5
  %32 = load i64, ptr %10, align 8, !tbaa !23
  %33 = add i64 %32, 1
  %34 = uitofp i64 %33 to double
  call void @lua_pushnumber(ptr noundef %31, double noundef %34)
  br label %35

35:                                               ; preds = %30, %27
  %36 = load ptr, ptr %5, align 8, !tbaa !123
  %37 = load ptr, ptr %9, align 8, !tbaa !5
  %38 = call i32 @parseReply(ptr noundef %36, ptr noundef %37)
  %39 = load ptr, ptr %9, align 8, !tbaa !5
  %40 = icmp ne ptr %39, null
  br i1 %40, label %41, label %43

41:                                               ; preds = %35
  %42 = load ptr, ptr %9, align 8, !tbaa !5
  call void @lua_settable(ptr noundef %42, i32 noundef -3)
  br label %43

43:                                               ; preds = %41, %35
  br label %44

44:                                               ; preds = %43
  %45 = load i64, ptr %10, align 8, !tbaa !23
  %46 = add i64 %45, 1
  store i64 %46, ptr %10, align 8, !tbaa !23
  br label %22, !llvm.loop !125

47:                                               ; preds = %26
  call void @llvm.lifetime.end.p0(i64 8, ptr %9) #12
  ret void
}