; Function Attrs: nounwind uwtable
define internal void @redisProtocolToLuaType_Array(ptr noundef %0, ptr noundef %1, i64 noundef %2, ptr readnone captures(none) %3) #0 {
  %.not = icmp eq ptr %1, null
  br i1 %.not, label %8, label %5

5:                                                ; preds = %4
  %6 = tail call i32 @lua_checkstack(ptr noundef nonnull %1, i32 noundef 2) #11
  %.not14 = icmp eq i32 %6, 0
  br i1 %.not14, label %7, label %.thread

7:                                                ; preds = %5
  tail call void (ptr, i32, ptr, ...) @_serverPanic(ptr noundef nonnull @.str.1, i32 noundef 383, ptr noundef nonnull @.str.105) #11
  tail call void @abort() #12
  unreachable

8:                                                ; preds = %4
  %.not16 = icmp eq i64 %2, 0
  br i1 %.not16, label %._crit_edge, label %.critedge.us

.thread:                                          ; preds = %5
  tail call void @lua_createtable(ptr noundef nonnull %1, i32 noundef 0, i32 noundef 0) #11
  %.not1619 = icmp eq i64 %2, 0
  br i1 %.not1619, label %._crit_edge, label %.lr.ph.split

.critedge.us:                                     ; preds = %8, %.critedge.us
  %.015.us = phi i64 [ %10, %.critedge.us ], [ 0, %8 ]
  %9 = tail call i32 @parseReply(ptr noundef %0, ptr noundef null) #11
  %10 = add nuw i64 %.015.us, 1
  %exitcond18.not = icmp eq i64 %10, %2
  br i1 %exitcond18.not, label %._crit_edge, label %.critedge.us, !llvm.loop !106

._crit_edge:                                      ; preds = %.lr.ph.split, %.critedge.us, %.thread, %8
  ret void

.lr.ph.split:                                     ; preds = %.thread, %.lr.ph.split
  %.015 = phi i64 [ %11, %.lr.ph.split ], [ 0, %.thread ]
  %11 = add nuw i64 %.015, 1
  %12 = uitofp i64 %11 to double
  tail call void @lua_pushnumber(ptr noundef nonnull %1, double noundef %12) #11
  %13 = tail call i32 @parseReply(ptr noundef %0, ptr noundef nonnull %1) #11
  tail call void @lua_settable(ptr noundef nonnull %1, i32 noundef -3) #11
  %exitcond.not = icmp eq i64 %11, %2
  br i1 %exitcond.not, label %._crit_edge, label %.lr.ph.split, !llvm.loop !106
}